target datalayout = "e-m:e-p270:32:32-p271:32:32-p272:64:64-i64:64-i128:128-f80:128-n8:16:32:64-S128"
target triple = "x86_64-pc-linux-gnu"

%"class.google::protobuf::MessageLite" = type { ptr, %"class.google::protobuf::internal::InternalMetadata" }
%"class.google::protobuf::internal::InternalMetadata" = type { ptr }
%"class.google::protobuf::internal::HasBits" = type { [1 x i32] }
%"class.google::protobuf::internal::CachedSize" = type { %"struct.std::atomic" }
%"struct.std::atomic" = type { %"struct.std::__atomic_base" }
%"struct.std::__atomic_base" = type { i32 }
%"class.google::protobuf::internal::RepeatedPtrFieldBase" = type { ptr, i32, i32, ptr }
%"struct.google::protobuf::internal::ArenaStringPtr" = type { ptr }
%"struct.google::protobuf::internal::InternalMetadata::Container" = type { %"struct.google::protobuf::internal::InternalMetadata::ContainerBase", %"class.std::__cxx11::basic_string" }
%"struct.google::protobuf::internal::InternalMetadata::ContainerBase" = type { ptr }
%"class.std::__cxx11::basic_string" = type { %"struct.std::__cxx11::basic_string<char>::_Alloc_hider", i64, %union.anon }
%"struct.std::__cxx11::basic_string<char>::_Alloc_hider" = type { ptr }
%union.anon = type { i64, [8 x i8] }
%"class.i18n::phonenumbers::PhoneMetadata" = type <{ %"class.google::protobuf::MessageLite", %"class.google::protobuf::internal::HasBits", %"class.google::protobuf::internal::CachedSize", %"class.google::protobuf::RepeatedPtrField.5", %"class.google::protobuf::RepeatedPtrField.5", %"struct.google::protobuf::internal::ArenaStringPtr", %"struct.google::protobuf::internal::ArenaStringPtr", %"struct.google::protobuf::internal::ArenaStringPtr", %"struct.google::protobuf::internal::ArenaStringPtr", %"struct.google::protobuf::internal::ArenaStringPtr", %"struct.google::protobuf::internal::ArenaStringPtr", %"struct.google::protobuf::internal::ArenaStringPtr", %"struct.google::protobuf::internal::ArenaStringPtr", ptr, ptr, ptr, ptr, ptr, ptr, ptr, ptr, ptr, ptr, ptr, ptr, ptr, ptr, ptr, ptr, ptr, i32, i8, i8, i8, i8 }>
%"class.google::protobuf::RepeatedPtrField.5" = type { %"class.google::protobuf::internal::RepeatedPtrFieldBase" }

; Function Attrs: mustprogress nounwind uwtable
define linkonce_odr dso_local void @_ZN6google8protobuf8internal20RepeatedPtrFieldBaseD2Ev(ptr noundef nonnull align 8 dereferenceable(24) %0) unnamed_addr #5 comdat align 2 {
  %2 = alloca ptr, align 8
  store ptr %0, ptr %2, align 8
  ret void
}

; Function Attrs: mustprogress nounwind uwtable
define linkonce_odr dso_local void @_ZN6google8protobuf8internal16InternalMetadata9ContainerINSt7__cxx1112basic_stringIcSt11char_traitsIcESaIcEEEED2Ev(ptr noundef nonnull align 8 dereferenceable(40) %0) unnamed_addr #5 comdat align 2 {
  %2 = alloca ptr, align 8
  store ptr %0, ptr %2, align 8
  %3 = load ptr, ptr %2, align 8
  %4 = getelementptr inbounds %"struct.google::protobuf::internal::InternalMetadata::Container", ptr %3, i32 0, i32 1
  call void @_ZNSt7__cxx1112basic_stringIcSt11char_traitsIcESaIcEED1Ev(ptr noundef nonnull align 8 dereferenceable(32) %4) #3
  ret void
}

; Function Attrs: mustprogress nounwind uwtable
define linkonce_odr dso_local noundef ptr @_ZNK6google8protobuf8internal16InternalMetadata8PtrValueINS2_9ContainerINSt7__cxx1112basic_stringIcSt11char_traitsIcESaIcEEEEEEEPT_v(ptr noundef nonnull align 8 dereferenceable(8) %0) #5 comdat align 2 {
  %2 = alloca ptr, align 8
  store ptr %0, ptr %2, align 8
  %3 = load ptr, ptr %2, align 8
  %4 = getelementptr inbounds %"class.google::protobuf::internal::InternalMetadata", ptr %3, i32 0, i32 0
  %5 = load ptr, ptr %4, align 8
  %6 = ptrtoint ptr %5 to i64
  %7 = and i64 %6, -2
  %8 = inttoptr i64 %7 to ptr
  ret ptr %8
}

; Function Attrs: mustprogress nounwind uwtable
define linkonce_odr dso_local noundef ptr @_ZNK6google8protobuf8internal16InternalMetadata8PtrValueINS0_5ArenaEEEPT_v(ptr noundef nonnull align 8 dereferenceable(8) %0) #5 comdat align 2 {
  %2 = alloca ptr, align 8
  store ptr %0, ptr %2, align 8
  %3 = load ptr, ptr %2, align 8
  %4 = getelementptr inbounds %"class.google::protobuf::internal::InternalMetadata", ptr %3, i32 0, i32 0
  %5 = load ptr, ptr %4, align 8
  %6 = ptrtoint ptr %5 to i64
  %7 = and i64 %6, -2
  %8 = inttoptr i64 %7 to ptr
  ret ptr %8
}

; Function Attrs: mustprogress nounwind uwtable
define linkonce_odr dso_local noundef ptr @_ZNK6google8protobuf8internal16InternalMetadata8PtrValueINS2_13ContainerBaseEEEPT_v(ptr noundef nonnull align 8 dereferenceable(8) %0) #5 comdat align 2 {
  %2 = alloca ptr, align 8
  store ptr %0, ptr %2, align 8
  %3 = load ptr, ptr %2, align 8
  %4 = getelementptr inbounds %"class.google::protobuf::internal::InternalMetadata", ptr %3, i32 0, i32 0
  %5 = load ptr, ptr %4, align 8
  %6 = ptrtoint ptr %5 to i64
  %7 = and i64 %6, -2
  %8 = inttoptr i64 %7 to ptr
  ret ptr %8
}

; Function Attrs: mustprogress nounwind uwtable
define linkonce_odr dso_local void @_ZN6google8protobuf11MessageLiteD2Ev(ptr noundef nonnull align 8 dereferenceable(16) %0) unnamed_addr #5 comdat align 2 {
  %2 = alloca ptr, align 8
  store ptr %0, ptr %2, align 8
  ret void
}

; Function Attrs: mustprogress nounwind uwtable
define linkonce_odr dso_local void @_ZN6google8protobuf16RepeatedPtrFieldIN4i18n12phonenumbers12NumberFormatEED2Ev(ptr noundef nonnull align 8 dereferenceable(24) %0) unnamed_addr #5 comdat align 2 personality ptr @__gxx_personality_v0 {
  %2 = alloca ptr, align 8
  store ptr %0, ptr %2, align 8
  %3 = load ptr, ptr %2, align 8
  invoke void @_ZN6google8protobuf8internal20RepeatedPtrFieldBase7DestroyINS0_16RepeatedPtrFieldIN4i18n12phonenumbers12NumberFormatEE11TypeHandlerEEEvv(ptr noundef nonnull align 8 dereferenceable(24) %3)
          to label %4 unwind label %5

4:                                                ; preds = %1
  call void @_ZN6google8protobuf8internal20RepeatedPtrFieldBaseD2Ev(ptr noundef nonnull align 8 dereferenceable(24) %3) #3
  ret void

5:                                                ; preds = %1
  %6 = landingpad { ptr, i32 }
          catch ptr null
  %7 = extractvalue { ptr, i32 } %6, 0
  call void @__clang_call_terminate(ptr %7) #15
  unreachable
}

; Function Attrs: mustprogress uwtable
define linkonce_odr dso_local void @_ZN6google8protobuf8internal16InternalMetadata6DeleteINSt7__cxx1112basic_stringIcSt11char_traitsIcESaIcEEEEEvv(ptr noundef nonnull align 8 dereferenceable(8) %0) #4 comdat align 2 {
  %2 = alloca ptr, align 8
  %3 = alloca ptr, align 8
  %4 = alloca ptr, align 8
  %5 = alloca ptr, align 8
  %6 = alloca ptr, align 8
  %7 = alloca ptr, align 8
  %8 = alloca ptr, align 8
  store ptr %0, ptr %8, align 8
  %9 = load ptr, ptr %8, align 8
  store ptr %9, ptr %7, align 8
  %10 = load ptr, ptr %7, align 8
  store ptr %10, ptr %2, align 8
  %11 = load ptr, ptr %2, align 8
  %12 = load ptr, ptr %11, align 8
  %13 = ptrtoint ptr %12 to i64
  %14 = and i64 %13, 1
  %15 = trunc i64 %14 to i32
  %16 = icmp eq i32 %15, 1
  br i1 %16, label %17, label %39

17:                                               ; preds = %1
  store ptr %9, ptr %6, align 8
  %18 = load ptr, ptr %6, align 8
  store ptr %18, ptr %4, align 8
  %19 = load ptr, ptr %4, align 8
  store ptr %19, ptr %3, align 8
  %20 = load ptr, ptr %3, align 8
  %21 = load ptr, ptr %20, align 8
  %22 = ptrtoint ptr %21 to i64
  %23 = and i64 %22, 1
  %24 = trunc i64 %23 to i32
  %25 = icmp eq i32 %24, 1
  br i1 %25, label %26, label %29

26:                                               ; preds = %17
  %27 = call noundef ptr @_ZNK6google8protobuf8internal16InternalMetadata8PtrValueINS2_13ContainerBaseEEEPT_v(ptr noundef nonnull align 8 dereferenceable(8) %18)
  %28 = load ptr, ptr %27, align 8
  store ptr %28, ptr %5, align 8
  br label %31

29:                                               ; preds = %17
  %30 = call noundef ptr @_ZNK6google8protobuf8internal16InternalMetadata8PtrValueINS0_5ArenaEEEPT_v(ptr noundef nonnull align 8 dereferenceable(8) %18)
  store ptr %30, ptr %5, align 8
  br label %31

31:                                               ; preds = %29, %26
  %32 = load ptr, ptr %5, align 8
  %33 = icmp eq ptr %32, null
  br i1 %33, label %34, label %39

34:                                               ; preds = %31
  %35 = call noundef ptr @_ZNK6google8protobuf8internal16InternalMetadata8PtrValueINS2_9ContainerINSt7__cxx1112basic_stringIcSt11char_traitsIcESaIcEEEEEEEPT_v(ptr noundef nonnull align 8 dereferenceable(8) %9)
  %36 = icmp eq ptr %35, null
  br i1 %36, label %38, label %37

37:                                               ; preds = %34
  call void @_ZN6google8protobuf8internal16InternalMetadata9ContainerINSt7__cxx1112basic_stringIcSt11char_traitsIcESaIcEEEED2Ev(ptr noundef nonnull align 8 dereferenceable(40) %35) #3
  call void @_ZdlPv(ptr noundef %35) #16
  br label %38

38:                                               ; preds = %37, %34
  br label %39

39:                                               ; preds = %38, %31, %1
  ret void
}

; Function Attrs: mustprogress nounwind uwtable
define dso_local void @_ZN4i18n12phonenumbers13PhoneMetadataD2Ev(ptr noundef nonnull align 8 dereferenceable(280) %0) unnamed_addr #5 align 2 personality ptr @__gxx_personality_v0 {
  %2 = alloca ptr, align 8
  store ptr %0, ptr %2, align 8
  %3 = load ptr, ptr %2, align 8
  invoke void @_ZN4i18n12phonenumbers13PhoneMetadata10SharedDtorEv(ptr noundef nonnull align 8 dereferenceable(280) %3)
          to label %4 unwind label %9

4:                                                ; preds = %1
  %5 = getelementptr inbounds %"class.google::protobuf::MessageLite", ptr %3, i32 0, i32 1
  invoke void @_ZN6google8protobuf8internal16InternalMetadata6DeleteINSt7__cxx1112basic_stringIcSt11char_traitsIcESaIcEEEEEvv(ptr noundef nonnull align 8 dereferenceable(8) %5)
          to label %6 unwind label %9

6:                                                ; preds = %4
  %7 = getelementptr inbounds %"class.i18n::phonenumbers::PhoneMetadata", ptr %3, i32 0, i32 4
  call void @_ZN6google8protobuf16RepeatedPtrFieldIN4i18n12phonenumbers12NumberFormatEED2Ev(ptr noundef nonnull align 8 dereferenceable(24) %7) #3
  %8 = getelementptr inbounds %"class.i18n::phonenumbers::PhoneMetadata", ptr %3, i32 0, i32 3
  call void @_ZN6google8protobuf16RepeatedPtrFieldIN4i18n12phonenumbers12NumberFormatEED2Ev(ptr noundef nonnull align 8 dereferenceable(24) %8) #3
  call void @_ZN6google8protobuf11MessageLiteD2Ev(ptr noundef nonnull align 8 dereferenceable(16) %3) #3
  ret void

9:                                                ; preds = %4, %1
  %10 = landingpad { ptr, i32 }
          catch ptr null
  %11 = extractvalue { ptr, i32 } %10, 0
  call void @__clang_call_terminate(ptr %11) #15
  unreachable
}