; Function Attrs: mustprogress nounwind uwtable
define dso_local void @_ZN4i18n12phonenumbers13PhoneMetadataD2Ev(ptr noundef nonnull align 8 dereferenceable(280) %0) unnamed_addr #6 align 2 personality ptr @__gxx_personality_v0 {
  invoke void @_ZN4i18n12phonenumbers13PhoneMetadata10SharedDtorEv(ptr noundef nonnull align 8 dereferenceable(280) %0)
          to label %2 unwind label %22

2:                                                ; preds = %1
  %3 = getelementptr inbounds i8, ptr %0, i64 8
  %4 = load ptr, ptr %3, align 8
  %5 = ptrtoint ptr %4 to i64
  %6 = and i64 %5, 1
  %.not.i = icmp eq i64 %6, 0
  br i1 %.not.i, label %_ZN6google8protobuf8internal16InternalMetadata6DeleteINSt7__cxx1112basic_stringIcSt11char_traitsIcESaIcEEEEEvv.exit, label %7

7:                                                ; preds = %2
  %8 = and i64 %5, -2
  %9 = inttoptr i64 %8 to ptr
  %10 = load ptr, ptr %9, align 8
  %11 = icmp eq ptr %10, null
  br i1 %11, label %12, label %_ZN6google8protobuf8internal16InternalMetadata6DeleteINSt7__cxx1112basic_stringIcSt11char_traitsIcESaIcEEEEEvv.exit

12:                                               ; preds = %7
  %13 = getelementptr inbounds i8, ptr %9, i64 8
  tail call void @_ZNSt7__cxx1112basic_stringIcSt11char_traitsIcESaIcEED1Ev(ptr noundef nonnull align 8 dereferenceable(32) %13) #21
  tail call void @_ZdlPv(ptr noundef nonnull %9) #23
  br label %_ZN6google8protobuf8internal16InternalMetadata6DeleteINSt7__cxx1112basic_stringIcSt11char_traitsIcESaIcEEEEEvv.exit

_ZN6google8protobuf8internal16InternalMetadata6DeleteINSt7__cxx1112basic_stringIcSt11char_traitsIcESaIcEEEEEvv.exit: ; preds = %12, %7, %2
  %14 = getelementptr inbounds i8, ptr %0, i64 48
  invoke void @_ZN6google8protobuf8internal20RepeatedPtrFieldBase7DestroyINS0_16RepeatedPtrFieldIN4i18n12phonenumbers12NumberFormatEE11TypeHandlerEEEvv(ptr noundef nonnull align 8 dereferenceable(24) %14)
          to label %_ZN6google8protobuf16RepeatedPtrFieldIN4i18n12phonenumbers12NumberFormatEED2Ev.exit unwind label %15

15:                                               ; preds = %_ZN6google8protobuf8internal16InternalMetadata6DeleteINSt7__cxx1112basic_stringIcSt11char_traitsIcESaIcEEEEEvv.exit
  %16 = landingpad { ptr, i32 }
          catch ptr null
  %17 = extractvalue { ptr, i32 } %16, 0
  tail call void @__clang_call_terminate(ptr %17) #24
  unreachable

_ZN6google8protobuf16RepeatedPtrFieldIN4i18n12phonenumbers12NumberFormatEED2Ev.exit: ; preds = %_ZN6google8protobuf8internal16InternalMetadata6DeleteINSt7__cxx1112basic_stringIcSt11char_traitsIcESaIcEEEEEvv.exit
  %18 = getelementptr inbounds i8, ptr %0, i64 24
  invoke void @_ZN6google8protobuf8internal20RepeatedPtrFieldBase7DestroyINS0_16RepeatedPtrFieldIN4i18n12phonenumbers12NumberFormatEE11TypeHandlerEEEvv(ptr noundef nonnull align 8 dereferenceable(24) %18)
          to label %_ZN6google8protobuf16RepeatedPtrFieldIN4i18n12phonenumbers12NumberFormatEED2Ev.exit1 unwind label %19

19:                                               ; preds = %_ZN6google8protobuf16RepeatedPtrFieldIN4i18n12phonenumbers12NumberFormatEED2Ev.exit
  %20 = landingpad { ptr, i32 }
          catch ptr null
  %21 = extractvalue { ptr, i32 } %20, 0
  tail call void @__clang_call_terminate(ptr %21) #24
  unreachable

_ZN6google8protobuf16RepeatedPtrFieldIN4i18n12phonenumbers12NumberFormatEED2Ev.exit1: ; preds = %_ZN6google8protobuf16RepeatedPtrFieldIN4i18n12phonenumbers12NumberFormatEED2Ev.exit
  ret void

22:                                               ; preds = %1
  %23 = landingpad { ptr, i32 }
          catch ptr null
  %24 = extractvalue { ptr, i32 } %23, 0
  tail call void @__clang_call_terminate(ptr %24) #24
  unreachable
}